(dp0
S'loss'
p1
(lp2
F0.2947766184806824
aF0.026430927217006683
aF0.0973249301314354
aF0.029634106904268265
aF0.00860508531332016
aF0.010569512844085693
aF0.006255194544792175
aF0.05942809581756592
aF0.023511499166488647
aF0.04989016801118851
aF0.006098620593547821
aF0.08557086437940598
aF0.002162151038646698
aF0.0031642019748687744
aF0.0010388344526290894
aF0.00351502001285553
aF0.007300719618797302
aF0.0079122856259346
aF0.007553040981292725
aF0.003884047269821167
aF0.015423938632011414
aF0.0021399036049842834
aF0.0013428032398223877
aF0.0008198320865631104
aF0.0006870180368423462
aF0.0017812997102737427
aF0.002485021948814392
aF0.001891791820526123
aF0.0003549307584762573
aF0.0005903393030166626
aF8.514523506164551e-05
aF0.00022301077842712402
aF0.0002896338701248169
aF0.0005187839269638062
aF0.0003706216812133789
aF0.00024503469467163086
aF0.0006249397993087769
aF0.0001719743013381958
aF0.000809982419013977
aF0.0003639906644821167
aF0.0002005845308303833
aF0.0008362084627151489
aF0.00025926530361175537
aF4.7579407691955566e-05
aF0.00010412931442260742
aF0.0003620237112045288
aF0.000241011381149292
aF0.000197485089302063
aF0.00016577541828155518
aF0.00016652047634124756
aF0.00044001638889312744
aF4.908442497253418e-05
aF5.942583084106445e-05
aF9.137392044067383e-05
aF0.00044937431812286377
aF0.00012974441051483154
aF4.3064355850219727e-05
aF0.00040574371814727783
aF0.00012533366680145264
aF0.00030575692653656006
aF8.028745651245117e-05
aF0.0001396387815475464
aF0.0003444403409957886
aF0.00018107891082763672
aF0.00023709237575531006
aF0.00024349987506866455
aF4.2304396629333496e-05
aF2.714991569519043e-05
aF0.0002036839723587036
aF1.774728298187256e-05
aF4.1961669921875e-05
aF0.00012227892875671387
aF3.762543201446533e-05
aF1.4469027519226074e-05
aF4.772841930389404e-05
aF0.00017684698104858398
aF5.5730342864990234e-06
aF6.73532485961914e-05
aF1.9475817680358887e-05
aF0.00011129677295684814
aF0.00048051774501800537
aF0.00037120282649993896
aF4.236400127410889e-05
aF3.275275230407715e-05
aF4.385411739349365e-05
aF9.860098361968994e-05
aF8.606910705566406e-05
aF0.00021745264530181885
aF8.10772180557251e-05
aF0.0001588761806488037
aF2.810359001159668e-05
aF7.271766662597656e-05
aF0.00015126168727874756
aF3.249943256378174e-05
aF0.00017543137073516846
aF1.0862946510314941e-05
asS'running_accuracy'
p3
(lp4
F0.9723137760550701
aF0.9780960364319224
aF0.983302329848282
aF0.9869800523156634
aF0.9890779889591688
aF0.9898037630833851
aF0.9913969268421339
aF0.9912023931455716
aF0.9918236360294674
aF0.9925581567587938
aF0.9935689427363231
aF0.9952259964386848
aF0.9961227664620428
aF0.9974456287314953
aF0.9961465575111689
aF0.9973023300109897
aF0.9984469785346431
aF0.9978931734421504
aF0.9979779934540701
aF0.9989451803478185
aF0.9992678942931286
aF0.9995288939897664
aF0.9996418134845519
aF0.9999257620532456
aF0.999988620554602
aF0.9999936562862245
aF0.9999999692319309
aF0.9999999634992378
aF0.9999999554490615
aF1.0
aF0.9999956580132623
aF1.0
aF1.0
aF1.0
aF1.0
aF1.0
aF1.0
aF1.0
aF1.0
aF1.0
aF1.0
aF1.0
aF1.0
aF1.0
aF1.0
aF1.0
aF1.0
aF1.0
aF1.0
aF1.0
aF1.0
aF1.0
aF1.0
aF1.0
aF1.0
aF1.0
aF1.0
aF1.0
aF1.0
aF1.0
aF1.0
aF1.0
aF1.0
aF1.0
aF1.0
aF1.0
aF1.0
aF1.0
aF1.0
aF1.0
aF1.0
aF1.0
aF1.0
aF1.0
aF1.0
aF1.0
aF1.0
aF1.0
aF1.0
aF1.0
aF1.0
aF1.0
aF1.0
aF1.0
aF1.0
aF1.0
aF1.0
aF1.0
aF1.0
aF1.0
aF1.0
aF1.0
aF1.0
aF1.0
aF1.0
aF1.0
asS'i'
p5
(lp6
I0
aI1
aI2
aI3
aI4
aI5
aI6
aI7
aI8
aI9
aI10
aI11
aI12
aI13
aI14
aI15
aI16
aI17
aI18
aI19
aI20
aI21
aI22
aI23
aI24
aI25
aI26
aI27
aI28
aI29
aI30
aI31
aI32
aI33
aI34
aI35
aI36
aI37
aI38
aI39
aI40
aI41
aI42
aI43
aI44
aI45
aI46
aI47
aI48
aI49
aI50
aI51
aI52
aI53
aI54
aI55
aI56
aI57
aI58
aI59
aI60
aI61
aI62
aI63
aI64
aI65
aI66
aI67
aI68
aI69
aI70
aI71
aI72
aI73
aI74
aI75
aI76
aI77
aI78
aI79
aI80
aI81
aI82
aI83
aI84
aI85
aI86
aI87
aI88
aI89
aI90
aI91
aI92
aI93
aI94
aI95
asS'running_loss'
p7
(lp8
F0.0931936076946128
aF0.07418999050135544
aF0.05485259774456041
aF0.043373180595810315
aF0.03351250055224775
aF0.03291775262602105
aF0.028682302343894434
aF0.027594758106137224
aF0.024133396207600785
aF0.020360824990188237
aF0.021433007644103344
aF0.01575352312461914
aF0.015928059063191294
aF0.01041505521249707
aF0.011739395517402431
aF0.008879813355552588
aF0.006183534094424239
aF0.006778258277681376
aF0.007362813014458335
aF0.004267943724066221
aF0.003937025618347691
aF0.0035272677344851517
aF0.0029784582793154052
aF0.001926163016118885
aF0.0018020979771402954
aF0.001188426937283669
aF0.0011646756858810503
aF0.0008412660103432994
aF0.0010152739498768921
aF0.0006905921644493519
aF0.0006795183034286698
aF0.0005954420172334133
aF0.0006481202802598139
aF0.0005980477245277533
aF0.000510381714973668
aF0.0003969513712003276
aF0.00035475880138342234
aF0.00036787949210288523
aF0.000381819160505952
aF0.00034373725708246745
aF0.00035071734084105634
aF0.00032860449936765907
aF0.0003125825819053582
aF0.0002647721807411575
aF0.00028060697333335947
aF0.0002819336088076073
aF0.0002868433945633244
aF0.00026292913630679557
aF0.0002362578756559935
aF0.00023226458937552474
aF0.00023644289039889482
aF0.00020600563091804122
aF0.00020896955704518438
aF0.00019970425916184187
aF0.0002320245078418121
aF0.0001869727999852508
aF0.00020939171632327477
aF0.00018995499902921064
aF0.00018144627414063184
aF0.00018599782901758546
aF0.00018327487604029495
aF0.00018951827566759057
aF0.00015144926988985098
aF0.00015664044129659355
aF0.00017740831386934395
aF0.0001551472638470314
aF0.0001617165879902468
aF0.00014426101195641957
aF0.00014849231417150436
aF0.00012278775279047242
aF0.00015683852741627707
aF0.00014215792009822703
aF0.00013031668506607386
aF0.00012021616128668637
aF0.00012416926498092092
aF0.00013977602516857622
aF0.00012354436538741223
aF0.00010887543302043744
aF0.00012193783299012103
aF0.00011144339215879775
aF0.00011798722273713618
aF0.00011609444689082312
aF0.00011421219370231726
aF0.00010547150368119477
aF9.995275480200385e-05
aF9.53045870134685e-05
aF0.00010142393025502421
aF9.983600008965427e-05
aF9.307316067315525e-05
aF0.00010204351227729541
aF8.791933427318901e-05
aF9.849428612749538e-05
aF8.67903155009676e-05
aF9.013506768628426e-05
aF8.273479870570006e-05
aF8.890319001847136e-05
asS'test_accuracy'
p9
(lp10
F0.9795673076923077
aF0.9883814102564102
aF0.9915865384615384
aF0.9921875
aF0.9911858974358975
aF0.9909855769230769
aF0.9919871794871795
aF0.9933894230769231
aF0.9931891025641025
aF0.9919871794871795
aF0.9911858974358975
aF0.991386217948718
aF0.9937900641025641
aF0.9909855769230769
aF0.9937900641025641
aF0.9931891025641025
aF0.9933894230769231
aF0.9935897435897436
aF0.992988782051282
aF0.9935897435897436
aF0.9925881410256411
aF0.9943910256410257
aF0.992988782051282
aF0.9939903846153846
aF0.9935897435897436
aF0.9939903846153846
aF0.9943910256410257
aF0.9933894230769231
aF0.9937900641025641
aF0.9941907051282052
aF0.9937900641025641
aF0.9941907051282052
aF0.9939903846153846
aF0.9939903846153846
aF0.9941907051282052
aF0.9943910256410257
aF0.9943910256410257
aF0.9939903846153846
aF0.9937900641025641
aF0.9941907051282052
aF0.9939903846153846
aF0.9941907051282052
aF0.9937900641025641
aF0.9941907051282052
aF0.9939903846153846
aF0.9937900641025641
aF0.9937900641025641
aF0.9935897435897436
aF0.9935897435897436
aF0.9937900641025641
aF0.9935897435897436
aF0.9941907051282052
aF0.9941907051282052
aF0.9941907051282052
aF0.9933894230769231
aF0.9939903846153846
aF0.9935897435897436
aF0.9931891025641025
aF0.9933894230769231
aF0.9933894230769231
aF0.9935897435897436
aF0.992988782051282
aF0.9939903846153846
aF0.9931891025641025
aF0.9935897435897436
aF0.9935897435897436
aF0.9933894230769231
aF0.9935897435897436
aF0.9935897435897436
aF0.9937900641025641
aF0.9931891025641025
aF0.9935897435897436
aF0.9937900641025641
aF0.9937900641025641
aF0.9935897435897436
aF0.992988782051282
aF0.9933894230769231
aF0.9933894230769231
aF0.992988782051282
aF0.9933894230769231
aF0.9937900641025641
aF0.9933894230769231
aF0.9933894230769231
aF0.9935897435897436
aF0.9937900641025641
aF0.9931891025641025
aF0.9937900641025641
aF0.9937900641025641
aF0.9931891025641025
aF0.9935897435897436
aF0.9935897435897436
aF0.9937900641025641
aF0.9937900641025641
aF0.9937900641025641
aF0.9935897435897436
aF0.9939903846153846
asS'test_loss'
p11
(lp12
F0.0634029979029527
aF0.0345189825942119
aF0.02664803966688804
aF0.02226141610970864
aF0.02507878276400077
aF0.023452531068752974
aF0.020881624223712165
aF0.020812667189882353
aF0.019430308626630366
aF0.023764931716215916
aF0.028538061687961604
aF0.026741314106262647
aF0.01860692184896041
aF0.026218190932503112
aF0.022093048223700278
aF0.02167689446837474
aF0.018052778373926114
aF0.01966591274891144
aF0.02206620559669458
aF0.01937815031180015
aF0.0210219262024531
aF0.01755191734394966
aF0.019985509319947317
aF0.019048580469993446
aF0.01973629107651038
aF0.01790753532296572
aF0.017957057087467268
aF0.018462525059779484
aF0.01984600808758002
aF0.019098144693252366
aF0.019592000840184014
aF0.019147807971025124
aF0.018780600661650684
aF0.019567070194543935
aF0.019245195704010818
aF0.02032974085364586
aF0.020119951512569036
aF0.019412738868059255
aF0.020235581227984183
aF0.020620577801496554
aF0.02045584575105936
aF0.020273928554394305
aF0.019880916588963606
aF0.020094376630507983
aF0.019396106879680585
aF0.02095395823319753
aF0.020528743664423626
aF0.020650874918852098
aF0.020739754852958214
aF0.02116472001832265
aF0.02109120509181267
aF0.021259285318545807
aF0.020853810203381073
aF0.02072671313698475
aF0.020625873253895685
aF0.020417732306015797
aF0.021729187419017155
aF0.0214204035508327
aF0.02112928410180104
aF0.021681222587059706
aF0.02134344335167836
aF0.02188364268304446
aF0.02150566627581914
aF0.02130169106217531
aF0.021454186202623904
aF0.02137283393396781
aF0.021684320500263803
aF0.02199013387927642
aF0.022357632238895465
aF0.0219367454544856
aF0.021955859919007007
aF0.022782820348556224
aF0.022178498693765737
aF0.022569680920778178
aF0.022455632973175783
aF0.02232566098563182
aF0.022326852457645614
aF0.0221515082491514
aF0.02234825788018031
aF0.022441406185046222
aF0.021942122146869317
aF0.022671630080693807
aF0.022373425654875927
aF0.022618287314589206
aF0.02219184459402011
aF0.02243262295348522
aF0.02226314827417716
aF0.02251163898752286
aF0.022644994493860465
aF0.022312493564990852
aF0.023011637756075613
aF0.022504619298837125
aF0.022820878487366896
aF0.02236196341422888
aF0.022834862033144023
aF0.022622879546804305
asS'accuracy'
p13
(lp14
F0.96875
aF1.0
aF0.984375
aF0.984375
aF1.0
aF1.0
aF1.0
aF0.96875
aF1.0
aF0.96875
aF1.0
aF0.96875
aF1.0
aF1.0
aF1.0
aF1.0
aF1.0
aF1.0
aF1.0
aF1.0
aF0.984375
aF1.0
aF1.0
aF1.0
aF1.0
aF1.0
aF1.0
aF1.0
aF1.0
aF1.0
aF1.0
aF1.0
aF1.0
aF1.0
aF1.0
aF1.0
aF1.0
aF1.0
aF1.0
aF1.0
aF1.0
aF1.0
aF1.0
aF1.0
aF1.0
aF1.0
aF1.0
aF1.0
aF1.0
aF1.0
aF1.0
aF1.0
aF1.0
aF1.0
aF1.0
aF1.0
aF1.0
aF1.0
aF1.0
aF1.0
aF1.0
aF1.0
aF1.0
aF1.0
aF1.0
aF1.0
aF1.0
aF1.0
aF1.0
aF1.0
aF1.0
aF1.0
aF1.0
aF1.0
aF1.0
aF1.0
aF1.0
aF1.0
aF1.0
aF1.0
aF1.0
aF1.0
aF1.0
aF1.0
aF1.0
aF1.0
aF1.0
aF1.0
aF1.0
aF1.0
aF1.0
aF1.0
aF1.0
aF1.0
aF1.0
aF1.0
as.