ccopy_reg
_reconstructor
p0
(cargparse
Namespace
p1
c__builtin__
object
p2
Ntp3
Rp4
(dp5
S'curr'
p6
I00
sS'bsize'
p7
I64
sS'pretrain_decoder'
p8
I00
sS'seed'
p9
I0
sS'printf'
p10
I01
sS'max_epochs'
p11
I100
sS'outputdir'
p12
S'runs/pretrain_drastic_cnn'
p13
sS'num_transfer'
p14
F1.0
sS'transfer'
p15
I00
sS'cdepth'
p16
I1
sS'log_interval'
p17
I100
sS'lr'
p18
F0.05
sS'hdim'
p19
I256
sS'env'
p20
S'drasticnormal'
p21
sS'splittype'
p22
S''
p23
sS'no_cuda'
p24
I00
sS'resume'
p25
g23
sS'eval'
p26
I00
sS'curr_every'
p27
I10
sS'nlayers'
p28
I3
sS'cuda'
p29
I01
sS'model'
p30
S'cnn64fc_8'
p31
sb.